target datalayout = "e-m:e-p270:32:32-p271:32:32-p272:64:64-i64:64-i128:128-f80:128-n8:16:32:64-S128"
target triple = "x86_64-pc-linux-gnu"

%struct._lv_obj_t = type { ptr, ptr, ptr, ptr, ptr, %struct.lv_area_t, i32, i16, i16 }
%struct.lv_area_t = type { i32, i32, i32, i32 }
%struct._lv_obj_spec_attr_t = type { ptr, ptr, %struct.lv_event_list_t, %struct.lv_point_t, i32, i32, i16, i16 }
%struct.lv_event_list_t = type { %struct._lv_array_t, i8 }
%struct._lv_array_t = type { ptr, i32, i32, i32, i8 }
%struct.lv_point_t = type { i32, i32 }

; Function Attrs: nounwind uwtable
define internal zeroext i1 @obj_valid_child(ptr noundef %0, ptr noundef %1) #0 {
  %3 = alloca i1, align 1
  %4 = alloca ptr, align 8
  %5 = alloca ptr, align 8
  %6 = alloca i32, align 4
  %7 = alloca i32, align 4
  %8 = alloca ptr, align 8
  %9 = alloca i32, align 4
  %10 = alloca i8, align 1
  store ptr %0, ptr %4, align 8, !tbaa !8
  store ptr %1, ptr %5, align 8, !tbaa !8
  call void @llvm.lifetime.start.p0(i64 4, ptr %6) #5
  store i32 0, ptr %6, align 4, !tbaa !17
  %11 = load ptr, ptr %4, align 8, !tbaa !8
  %12 = getelementptr inbounds nuw %struct._lv_obj_t, ptr %11, i32 0, i32 2
  %13 = load ptr, ptr %12, align 8, !tbaa !25
  %14 = icmp ne ptr %13, null
  br i1 %14, label %15, label %22

15:                                               ; preds = %2
  %16 = load ptr, ptr %4, align 8, !tbaa !8
  %17 = getelementptr inbounds nuw %struct._lv_obj_t, ptr %16, i32 0, i32 2
  %18 = load ptr, ptr %17, align 8, !tbaa !25
  %19 = getelementptr inbounds nuw %struct._lv_obj_spec_attr_t, ptr %18, i32 0, i32 6
  %20 = load i16, ptr %19, align 8, !tbaa !91
  %21 = zext i16 %20 to i32
  store i32 %21, ptr %6, align 4, !tbaa !17
  br label %22

22:                                               ; preds = %15, %2
  call void @llvm.lifetime.start.p0(i64 4, ptr %7) #5
  store i32 0, ptr %7, align 4, !tbaa !17
  br label %23

23:                                               ; preds = %54, %22
  %24 = load i32, ptr %7, align 4, !tbaa !17
  %25 = load i32, ptr %6, align 4, !tbaa !17
  %26 = icmp ult i32 %24, %25
  br i1 %26, label %27, label %57

27:                                               ; preds = %23
  call void @llvm.lifetime.start.p0(i64 8, ptr %8) #5
  %28 = load ptr, ptr %4, align 8, !tbaa !8
  %29 = getelementptr inbounds nuw %struct._lv_obj_t, ptr %28, i32 0, i32 2
  %30 = load ptr, ptr %29, align 8, !tbaa !25
  %31 = getelementptr inbounds nuw %struct._lv_obj_spec_attr_t, ptr %30, i32 0, i32 0
  %32 = load ptr, ptr %31, align 8, !tbaa !26
  %33 = load i32, ptr %7, align 4, !tbaa !17
  %34 = zext i32 %33 to i64
  %35 = getelementptr inbounds nuw ptr, ptr %32, i64 %34
  %36 = load ptr, ptr %35, align 8, !tbaa !8
  store ptr %36, ptr %8, align 8, !tbaa !8
  %37 = load ptr, ptr %8, align 8, !tbaa !8
  %38 = load ptr, ptr %5, align 8, !tbaa !8
  %39 = icmp eq ptr %37, %38
  br i1 %39, label %40, label %41

40:                                               ; preds = %27
  store i1 true, ptr %3, align 1
  store i32 1, ptr %9, align 4
  br label %51

41:                                               ; preds = %27
  call void @llvm.lifetime.start.p0(i64 1, ptr %10) #5
  %42 = load ptr, ptr %8, align 8, !tbaa !8
  %43 = load ptr, ptr %5, align 8, !tbaa !8
  %44 = call zeroext i1 @obj_valid_child(ptr noundef %42, ptr noundef %43)
  %45 = zext i1 %44 to i8
  store i8 %45, ptr %10, align 1, !tbaa !39
  %46 = load i8, ptr %10, align 1, !tbaa !39, !range !40, !noundef !41
  %47 = trunc i8 %46 to i1
  br i1 %47, label %48, label %49

48:                                               ; preds = %41
  store i1 true, ptr %3, align 1
  store i32 1, ptr %9, align 4
  br label %50

49:                                               ; preds = %41
  store i32 0, ptr %9, align 4
  br label %50

50:                                               ; preds = %49, %48
  call void @llvm.lifetime.end.p0(i64 1, ptr %10) #5
  br label %51

51:                                               ; preds = %50, %40
  call void @llvm.lifetime.end.p0(i64 8, ptr %8) #5
  %52 = load i32, ptr %9, align 4
  switch i32 %52, label %58 [
    i32 0, label %53
  ]

53:                                               ; preds = %51
  br label %54

54:                                               ; preds = %53
  %55 = load i32, ptr %7, align 4, !tbaa !17
  %56 = add i32 %55, 1
  store i32 %56, ptr %7, align 4, !tbaa !17
  br label %23, !llvm.loop !92

57:                                               ; preds = %23
  store i1 false, ptr %3, align 1
  store i32 1, ptr %9, align 4
  br label %58

58:                                               ; preds = %57, %51
  call void @llvm.lifetime.end.p0(i64 4, ptr %7) #5
  call void @llvm.lifetime.end.p0(i64 4, ptr %6) #5
  %59 = load i1, ptr %3, align 1
  ret i1 %59
}