; Function Attrs: nofree nosync nounwind memory(read, inaccessiblemem: none) uwtable
define internal fastcc noundef zeroext i1 @obj_valid_child(ptr noundef readonly captures(none) %0, ptr noundef captures(address) %1) unnamed_addr #6 {
  %3 = getelementptr inbounds nuw i8, ptr %0, i64 16
  %4 = load ptr, ptr %3, align 8, !tbaa !20
  %.not = icmp eq ptr %4, null
  br i1 %.not, label %.critedge, label %5

5:                                                ; preds = %2
  %6 = getelementptr inbounds nuw i8, ptr %4, i64 64
  %7 = load i16, ptr %6, align 8, !tbaa !106
  %.not25 = icmp eq i16 %7, 0
  br i1 %.not25, label %.critedge, label %.lr.ph

.lr.ph:                                           ; preds = %5
  %8 = load ptr, ptr %4, align 8, !tbaa !30
  %wide.trip.count = zext i16 %7 to i64
  br label %10

9:                                                ; preds = %14
  %indvars.iv.next = add nuw nsw i64 %indvars.iv, 1
  %exitcond.not = icmp eq i64 %indvars.iv.next, %wide.trip.count
  br i1 %exitcond.not, label %.critedge, label %10, !llvm.loop !107

10:                                               ; preds = %.lr.ph, %9
  %indvars.iv = phi i64 [ 0, %.lr.ph ], [ %indvars.iv.next, %9 ]
  %11 = getelementptr inbounds nuw ptr, ptr %8, i64 %indvars.iv
  %12 = load ptr, ptr %11, align 8, !tbaa !32
  %13 = icmp eq ptr %12, %1
  br i1 %13, label %.critedge, label %14

14:                                               ; preds = %10
  %15 = tail call fastcc zeroext i1 @obj_valid_child(ptr noundef %12, ptr noundef %1)
  br i1 %15, label %.critedge, label %9

.critedge:                                        ; preds = %14, %9, %10, %2, %5
  %.lcssa = phi i1 [ false, %5 ], [ false, %2 ], [ true, %10 ], [ false, %9 ], [ true, %14 ]
  ret i1 %.lcssa
}